target datalayout = "e-m:e-p270:32:32-p271:32:32-p272:64:64-i64:64-i128:128-f80:128-n8:16:32:64-S128"
target triple = "x86_64-pc-linux-gnu"

%"class.xgboost::CatContainer" = type { %"class.std::mutex", %"class.xgboost::HostDeviceVector", i32, %"class.std::unique_ptr", %"class.xgboost::HostDeviceVector" }
%"class.std::mutex" = type { %"class.std::__mutex_base" }
%"class.std::__mutex_base" = type { %union.pthread_mutex_t }
%union.pthread_mutex_t = type { %struct.__pthread_mutex_s }
%struct.__pthread_mutex_s = type { i32, i32, i32, i32, i32, i16, i16, %struct.__pthread_internal_list }
%struct.__pthread_internal_list = type { ptr, ptr }
%"class.std::unique_ptr" = type { %"struct.std::__uniq_ptr_data" }
%"struct.std::__uniq_ptr_data" = type { %"class.std::__uniq_ptr_impl" }
%"class.std::__uniq_ptr_impl" = type { %"class.std::tuple" }
%"class.std::tuple" = type { %"struct.std::_Tuple_impl" }
%"struct.std::_Tuple_impl" = type { %"struct.std::_Head_base.1" }
%"struct.std::_Head_base.1" = type { ptr }
%"class.xgboost::HostDeviceVector" = type { ptr }

; Function Attrs: mustprogress nounwind uwtable
define void @_ZN7xgboost12CatContainerD2Ev(ptr noundef nonnull align 8 dereferenceable(72) %0) unnamed_addr #5 align 2 {
  %2 = alloca ptr, align 8
  store ptr %0, ptr %2, align 8, !tbaa !3
  %3 = load ptr, ptr %2, align 8
  %4 = getelementptr inbounds nuw %"class.xgboost::CatContainer", ptr %3, i32 0, i32 4
  call void @_ZN7xgboost16HostDeviceVectorIiED1Ev(ptr noundef nonnull align 8 dereferenceable(8) %4) #3
  %5 = getelementptr inbounds nuw %"class.xgboost::CatContainer", ptr %3, i32 0, i32 3
  call void @_ZNSt10unique_ptrIN7xgboost8cpu_impl16CatContainerImplESt14default_deleteIS2_EED2Ev(ptr noundef nonnull align 8 dereferenceable(8) %5) #3
  %6 = getelementptr inbounds nuw %"class.xgboost::CatContainer", ptr %3, i32 0, i32 1
  call void @_ZN7xgboost16HostDeviceVectorIiED1Ev(ptr noundef nonnull align 8 dereferenceable(8) %6) #3
  ret void
}