; Function Attrs: mustprogress nounwind uwtable
define void @_ZN7xgboost12CatContainerD2Ev(ptr noundef nonnull align 8 dereferenceable(72) %0) unnamed_addr #10 align 2 {
  %2 = getelementptr inbounds nuw i8, ptr %0, i64 64
  tail call void @_ZN7xgboost16HostDeviceVectorIiED1Ev(ptr noundef nonnull align 8 dereferenceable(8) %2) #17
  %3 = getelementptr inbounds nuw i8, ptr %0, i64 56
  tail call void @_ZNSt10unique_ptrIN7xgboost8cpu_impl16CatContainerImplESt14default_deleteIS2_EED2Ev(ptr noundef nonnull align 8 dereferenceable(8) %3) #17
  %4 = getelementptr inbounds nuw i8, ptr %0, i64 40
  tail call void @_ZN7xgboost16HostDeviceVectorIiED1Ev(ptr noundef nonnull align 8 dereferenceable(8) %4) #17
  ret void
}